; Function Attrs: mustprogress noreturn uwtable
define noundef i32 @_ZN5folly6detail8crc32_hwEPKhmj(ptr noundef readnone captures(none) %0, i64 noundef %1, i32 noundef %2) local_unnamed_addr #0 personality ptr @__gxx_personality_v0 {
  %4 = tail call ptr @__cxa_allocate_exception(i64 16) #9
  invoke void @_ZNSt13runtime_errorC1EPKc(ptr noundef nonnull align 8 dereferenceable(16) %4, ptr noundef nonnull @.str)
          to label %5 unwind label %6

5:                                                ; preds = %3
  tail call void @__cxa_throw(ptr nonnull %4, ptr nonnull @_ZTISt13runtime_error, ptr nonnull @_ZNSt13runtime_errorD1Ev) #10
  unreachable

6:                                                ; preds = %3
  %7 = landingpad { ptr, i32 }
          cleanup
  tail call void @__cxa_free_exception(ptr nonnull %4) #9
  resume { ptr, i32 } %7
}